; Function Attrs: mustprogress uwtable
define hidden void @_ZN4cvc58internal6theory11quantifiers14QuantRelevanceC2ERNS0_3EnvE(ptr noundef nonnull align 8 dereferenceable(160) %0, ptr noundef nonnull align 8 dereferenceable(696) %1) unnamed_addr #3 align 2 personality ptr @__gxx_personality_v0 {
  tail call void @_ZN4cvc58internal6theory15QuantifiersUtilC2ERNS0_3EnvE(ptr noundef nonnull align 8 dereferenceable(16) %0, ptr noundef nonnull align 8 dereferenceable(696) %1)
  store ptr getelementptr inbounds nuw inrange(-16, 56) (i8, ptr @_ZTVN4cvc58internal6theory11quantifiers14QuantRelevanceE, i64 16), ptr %0, align 8, !tbaa !3
  %3 = getelementptr inbounds nuw i8, ptr %0, i64 24
  store i32 0, ptr %3, align 8, !tbaa !6
  %4 = getelementptr inbounds nuw i8, ptr %0, i64 32
  store ptr null, ptr %4, align 8, !tbaa !14
  %5 = getelementptr inbounds nuw i8, ptr %0, i64 40
  store ptr %3, ptr %5, align 8, !tbaa !15
  %6 = getelementptr inbounds nuw i8, ptr %0, i64 48
  store ptr %3, ptr %6, align 8, !tbaa !16
  %7 = getelementptr inbounds nuw i8, ptr %0, i64 56
  store i64 0, ptr %7, align 8, !tbaa !17
  %8 = getelementptr inbounds nuw i8, ptr %0, i64 72
  store i32 0, ptr %8, align 8, !tbaa !6
  %9 = getelementptr inbounds nuw i8, ptr %0, i64 80
  store ptr null, ptr %9, align 8, !tbaa !14
  %10 = getelementptr inbounds nuw i8, ptr %0, i64 88
  store ptr %8, ptr %10, align 8, !tbaa !15
  %11 = getelementptr inbounds nuw i8, ptr %0, i64 96
  store ptr %8, ptr %11, align 8, !tbaa !16
  %12 = getelementptr inbounds nuw i8, ptr %0, i64 104
  store i64 0, ptr %12, align 8, !tbaa !17
  %13 = getelementptr inbounds nuw i8, ptr %0, i64 120
  store i32 0, ptr %13, align 8, !tbaa !6
  %14 = getelementptr inbounds nuw i8, ptr %0, i64 128
  store ptr null, ptr %14, align 8, !tbaa !14
  %15 = getelementptr inbounds nuw i8, ptr %0, i64 136
  store ptr %13, ptr %15, align 8, !tbaa !15
  %16 = getelementptr inbounds nuw i8, ptr %0, i64 144
  store ptr %13, ptr %16, align 8, !tbaa !16
  %17 = getelementptr inbounds nuw i8, ptr %0, i64 152
  store i64 0, ptr %17, align 8, !tbaa !17
  ret void
}